target datalayout = "e-m:e-p270:32:32-p271:32:32-p272:64:64-i64:64-i128:128-f80:128-n8:16:32:64-S128"
target triple = "x86_64-pc-linux-gnu"

%struct.RBasic = type { i64, i64 }

@rb_cRational = dso_local global i64 0, align 8
@id_abs = internal global i64 0, align 8

; Function Attrs: inlinehint nounwind sspstrong willreturn memory(none) uwtable
define internal zeroext i1 @RB_IMMEDIATE_P(i64 noundef %0) #8 {
  %2 = alloca i64, align 8
  store i64 %0, ptr %2, align 8, !tbaa !7
  %3 = load i64, ptr %2, align 8, !tbaa !7
  %4 = and i64 %3, 7
  %5 = icmp ne i64 %4, 0
  ret i1 %5
}

; Function Attrs: inlinehint nounwind sspstrong willreturn memory(read) uwtable
define internal i32 @RB_BUILTIN_TYPE(i64 noundef %0) #5 {
  %2 = alloca i64, align 8
  %3 = alloca i64, align 8
  store i64 %0, ptr %2, align 8, !tbaa !7
  call void @llvm.lifetime.start.p0(i64 8, ptr %3) #21
  %4 = load i64, ptr %2, align 8, !tbaa !7
  %5 = inttoptr i64 %4 to ptr
  %6 = getelementptr inbounds nuw %struct.RBasic, ptr %5, i32 0, i32 0
  %7 = load i64, ptr %6, align 8, !tbaa !12
  %8 = and i64 %7, 31
  store i64 %8, ptr %3, align 8, !tbaa !7
  %9 = load i64, ptr %3, align 8, !tbaa !7
  %10 = trunc i64 %9 to i32
  call void @llvm.lifetime.end.p0(i64 8, ptr %3) #21
  ret i32 %10
}

; Function Attrs: inlinehint nounwind sspstrong willreturn memory(none) uwtable
define internal zeroext i1 @RB_SPECIAL_CONST_P(i64 noundef %0) #8 {
  %2 = alloca i64, align 8
  store i64 %0, ptr %2, align 8, !tbaa !7
  %3 = load i64, ptr %2, align 8, !tbaa !7
  %4 = icmp eq i64 %3, 0
  br i1 %4, label %8, label %5

5:                                                ; preds = %1
  %6 = load i64, ptr %2, align 8, !tbaa !7
  %7 = call zeroext i1 @RB_IMMEDIATE_P(i64 noundef %6) #23
  br label %8

8:                                                ; preds = %5, %1
  %9 = phi i1 [ true, %1 ], [ %7, %5 ]
  ret i1 %9
}

; Function Attrs: inlinehint nounwind sspstrong willreturn memory(none) uwtable
define internal zeroext i1 @RB_TEST(i64 noundef %0) #8 {
  %2 = alloca i64, align 8
  store i64 %0, ptr %2, align 8, !tbaa !7
  %3 = load i64, ptr %2, align 8, !tbaa !7
  %4 = and i64 %3, -5
  %5 = icmp ne i64 %4, 0
  ret i1 %5
}

; Function Attrs: inlinehint nounwind sspstrong uwtable
define internal zeroext i1 @FIXNUM_ZERO_P(i64 noundef %0) #3 {
  %2 = alloca i64, align 8
  store i64 %0, ptr %2, align 8, !tbaa !7
  %3 = load i64, ptr %2, align 8, !tbaa !7
  %4 = icmp eq i64 %3, 1
  ret i1 %4
}

; Function Attrs: inlinehint nounwind sspstrong willreturn memory(none) uwtable
define internal zeroext i1 @RB_FIXNUM_P(i64 noundef %0) #8 {
  %2 = alloca i64, align 8
  store i64 %0, ptr %2, align 8, !tbaa !7
  %3 = load i64, ptr %2, align 8, !tbaa !7
  %4 = and i64 %3, 1
  %5 = icmp ne i64 %4, 0
  ret i1 %5
}

; Function Attrs: inlinehint nounwind sspstrong willreturn memory(read) uwtable
define internal zeroext i1 @rb_integer_type_p(i64 noundef %0) #5 {
  %2 = alloca i1, align 1
  %3 = alloca i64, align 8
  store i64 %0, ptr %3, align 8, !tbaa !7
  %4 = load i64, ptr %3, align 8, !tbaa !7
  %5 = call zeroext i1 @RB_FIXNUM_P(i64 noundef %4) #23
  br i1 %5, label %6, label %7

6:                                                ; preds = %1
  store i1 true, ptr %2, align 1
  br label %15

7:                                                ; preds = %1
  %8 = load i64, ptr %3, align 8, !tbaa !7
  %9 = call zeroext i1 @RB_SPECIAL_CONST_P(i64 noundef %8) #23
  br i1 %9, label %10, label %11

10:                                               ; preds = %7
  store i1 false, ptr %2, align 1
  br label %15

11:                                               ; preds = %7
  %12 = load i64, ptr %3, align 8, !tbaa !7
  %13 = call i32 @RB_BUILTIN_TYPE(i64 noundef %12) #22
  %14 = icmp eq i32 %13, 10
  store i1 %14, ptr %2, align 1
  br label %15

15:                                               ; preds = %11, %10, %6
  %16 = load i1, ptr %2, align 1
  ret i1 %16
}

; Function Attrs: nounwind sspstrong uwtable
define dso_local i64 @rb_rational_new(i64 noundef %0, i64 noundef %1) #0 {
  %3 = alloca i64, align 8
  %4 = alloca i64, align 8
  store i64 %0, ptr %3, align 8, !tbaa !7
  store i64 %1, ptr %4, align 8, !tbaa !7
  %5 = load i64, ptr @rb_cRational, align 8, !tbaa !7
  %6 = load i64, ptr %3, align 8, !tbaa !7
  %7 = load i64, ptr %4, align 8, !tbaa !7
  %8 = call i64 @nurat_s_canonicalize_internal(i64 noundef %5, i64 noundef %6, i64 noundef %7)
  ret i64 %8
}

; Function Attrs: inlinehint nounwind sspstrong uwtable
define internal i32 @f_eqeq_p(i64 noundef %0, i64 noundef %1) #3 {
  %3 = alloca i32, align 4
  %4 = alloca i64, align 8
  %5 = alloca i64, align 8
  store i64 %0, ptr %4, align 8, !tbaa !7
  store i64 %1, ptr %5, align 8, !tbaa !7
  %6 = load i64, ptr %4, align 8, !tbaa !7
  %7 = call zeroext i1 @RB_FIXNUM_P(i64 noundef %6) #23
  br i1 %7, label %8, label %16

8:                                                ; preds = %2
  %9 = load i64, ptr %5, align 8, !tbaa !7
  %10 = call zeroext i1 @RB_FIXNUM_P(i64 noundef %9) #23
  br i1 %10, label %11, label %16

11:                                               ; preds = %8
  %12 = load i64, ptr %4, align 8, !tbaa !7
  %13 = load i64, ptr %5, align 8, !tbaa !7
  %14 = icmp eq i64 %12, %13
  %15 = zext i1 %14 to i32
  store i32 %15, ptr %3, align 4
  br label %30

16:                                               ; preds = %8, %2
  %17 = load i64, ptr %4, align 8, !tbaa !7
  %18 = call zeroext i1 @rb_integer_type_p(i64 noundef %17) #22
  br i1 %18, label %19, label %25

19:                                               ; preds = %16
  %20 = load i64, ptr %4, align 8, !tbaa !7
  %21 = load i64, ptr %5, align 8, !tbaa !7
  %22 = call i64 @rb_int_equal(i64 noundef %20, i64 noundef %21)
  %23 = call zeroext i1 @RB_TEST(i64 noundef %22) #23
  %24 = zext i1 %23 to i32
  store i32 %24, ptr %3, align 4
  br label %30

25:                                               ; preds = %16
  %26 = load i64, ptr %4, align 8, !tbaa !7
  %27 = load i64, ptr %5, align 8, !tbaa !7
  %28 = call i64 @rb_equal(i64 noundef %26, i64 noundef %27)
  %29 = trunc i64 %28 to i32
  store i32 %29, ptr %3, align 4
  br label %30

30:                                               ; preds = %25, %19, %11
  %31 = load i32, ptr %3, align 4
  ret i32 %31
}

; Function Attrs: inlinehint nounwind sspstrong uwtable
define internal i64 @f_add(i64 noundef %0, i64 noundef %1) #3 {
  %3 = alloca i64, align 8
  %4 = alloca i64, align 8
  %5 = alloca i64, align 8
  store i64 %0, ptr %4, align 8, !tbaa !7
  store i64 %1, ptr %5, align 8, !tbaa !7
  %6 = load i64, ptr %5, align 8, !tbaa !7
  %7 = call zeroext i1 @FIXNUM_ZERO_P(i64 noundef %6)
  br i1 %7, label %8, label %10

8:                                                ; preds = %2
  %9 = load i64, ptr %4, align 8, !tbaa !7
  store i64 %9, ptr %3, align 8
  br label %26

10:                                               ; preds = %2
  %11 = load i64, ptr %4, align 8, !tbaa !7
  %12 = call zeroext i1 @FIXNUM_ZERO_P(i64 noundef %11)
  br i1 %12, label %13, label %15

13:                                               ; preds = %10
  %14 = load i64, ptr %5, align 8, !tbaa !7
  store i64 %14, ptr %3, align 8
  br label %26

15:                                               ; preds = %10
  %16 = load i64, ptr %4, align 8, !tbaa !7
  %17 = call zeroext i1 @rb_integer_type_p(i64 noundef %16) #22
  br i1 %17, label %18, label %22

18:                                               ; preds = %15
  %19 = load i64, ptr %4, align 8, !tbaa !7
  %20 = load i64, ptr %5, align 8, !tbaa !7
  %21 = call i64 @rb_int_plus(i64 noundef %19, i64 noundef %20)
  store i64 %21, ptr %3, align 8
  br label %26

22:                                               ; preds = %15
  %23 = load i64, ptr %4, align 8, !tbaa !7
  %24 = load i64, ptr %5, align 8, !tbaa !7
  %25 = call i64 (i64, i64, i32, ...) @rb_funcall(i64 noundef %23, i64 noundef 43, i32 noundef 1, i64 noundef %24)
  store i64 %25, ptr %3, align 8
  br label %26

26:                                               ; preds = %22, %18, %13, %8
  %27 = load i64, ptr %3, align 8
  ret i64 %27
}

; Function Attrs: inlinehint nounwind sspstrong uwtable
define internal i64 @f_sub(i64 noundef %0, i64 noundef %1) #3 {
  %3 = alloca i64, align 8
  %4 = alloca i64, align 8
  %5 = alloca i64, align 8
  store i64 %0, ptr %4, align 8, !tbaa !7
  store i64 %1, ptr %5, align 8, !tbaa !7
  %6 = load i64, ptr %5, align 8, !tbaa !7
  %7 = call zeroext i1 @RB_FIXNUM_P(i64 noundef %6) #23
  br i1 %7, label %8, label %13

8:                                                ; preds = %2
  %9 = load i64, ptr %5, align 8, !tbaa !7
  %10 = call zeroext i1 @FIXNUM_ZERO_P(i64 noundef %9)
  br i1 %10, label %11, label %13

11:                                               ; preds = %8
  %12 = load i64, ptr %4, align 8, !tbaa !7
  store i64 %12, ptr %3, align 8
  br label %17

13:                                               ; preds = %8, %2
  %14 = load i64, ptr %4, align 8, !tbaa !7
  %15 = load i64, ptr %5, align 8, !tbaa !7
  %16 = call i64 (i64, i64, i32, ...) @rb_funcall(i64 noundef %14, i64 noundef 45, i32 noundef 1, i64 noundef %15)
  store i64 %16, ptr %3, align 8
  br label %17

17:                                               ; preds = %13, %11
  %18 = load i64, ptr %3, align 8
  ret i64 %18
}

; Function Attrs: inlinehint nounwind sspstrong uwtable
define internal i64 @f_abs(i64 noundef %0) #3 {
  %2 = alloca i64, align 8
  %3 = alloca i64, align 8
  store i64 %0, ptr %3, align 8, !tbaa !7
  %4 = load i64, ptr %3, align 8, !tbaa !7
  %5 = call zeroext i1 @rb_integer_type_p(i64 noundef %4) #22
  br i1 %5, label %6, label %9

6:                                                ; preds = %1
  %7 = load i64, ptr %3, align 8, !tbaa !7
  %8 = call i64 @rb_int_abs(i64 noundef %7)
  store i64 %8, ptr %2, align 8
  br label %13

9:                                                ; preds = %1
  %10 = load i64, ptr %3, align 8, !tbaa !7
  %11 = load i64, ptr @id_abs, align 8, !tbaa !7
  %12 = call i64 (i64, i64, i32, ...) @rb_funcall(i64 noundef %10, i64 noundef %11, i32 noundef 0)
  store i64 %12, ptr %2, align 8
  br label %13

13:                                               ; preds = %9, %6
  %14 = load i64, ptr %2, align 8
  ret i64 %14
}

; Function Attrs: nounwind sspstrong uwtable
define dso_local i64 @rb_flt_rationalize_with_prec(i64 noundef %0, i64 noundef %1) #0 {
  %3 = alloca i64, align 8
  %4 = alloca i64, align 8
  %5 = alloca i64, align 8
  %6 = alloca i64, align 8
  %7 = alloca i64, align 8
  %8 = alloca i64, align 8
  %9 = alloca i64, align 8
  %10 = alloca i64, align 8
  %11 = alloca i32, align 4
  store i64 %0, ptr %4, align 8, !tbaa !7
  store i64 %1, ptr %5, align 8, !tbaa !7
  call void @llvm.lifetime.start.p0(i64 8, ptr %6) #21
  call void @llvm.lifetime.start.p0(i64 8, ptr %7) #21
  call void @llvm.lifetime.start.p0(i64 8, ptr %8) #21
  call void @llvm.lifetime.start.p0(i64 8, ptr %9) #21
  call void @llvm.lifetime.start.p0(i64 8, ptr %10) #21
  %12 = load i64, ptr %5, align 8, !tbaa !7
  %13 = call i64 @f_abs(i64 noundef %12)
  store i64 %13, ptr %6, align 8, !tbaa !7
  %14 = load i64, ptr %4, align 8, !tbaa !7
  %15 = load i64, ptr %6, align 8, !tbaa !7
  %16 = call i64 @f_sub(i64 noundef %14, i64 noundef %15)
  store i64 %16, ptr %7, align 8, !tbaa !7
  %17 = load i64, ptr %4, align 8, !tbaa !7
  %18 = load i64, ptr %6, align 8, !tbaa !7
  %19 = call i64 @f_add(i64 noundef %17, i64 noundef %18)
  store i64 %19, ptr %8, align 8, !tbaa !7
  %20 = load i64, ptr %7, align 8, !tbaa !7
  %21 = load i64, ptr %8, align 8, !tbaa !7
  %22 = call i32 @f_eqeq_p(i64 noundef %20, i64 noundef %21)
  %23 = icmp ne i32 %22, 0
  br i1 %23, label %24, label %27

24:                                               ; preds = %2
  %25 = load i64, ptr %4, align 8, !tbaa !7
  %26 = call i64 @float_to_r(i64 noundef %25)
  store i64 %26, ptr %3, align 8
  store i32 1, ptr %11, align 4
  br label %33

27:                                               ; preds = %2
  %28 = load i64, ptr %7, align 8, !tbaa !7
  %29 = load i64, ptr %8, align 8, !tbaa !7
  call void @nurat_rationalize_internal(i64 noundef %28, i64 noundef %29, ptr noundef %9, ptr noundef %10)
  %30 = load i64, ptr %9, align 8, !tbaa !7
  %31 = load i64, ptr %10, align 8, !tbaa !7
  %32 = call i64 @rb_rational_new(i64 noundef %30, i64 noundef %31)
  store i64 %32, ptr %3, align 8
  store i32 1, ptr %11, align 4
  br label %33

33:                                               ; preds = %27, %24
  call void @llvm.lifetime.end.p0(i64 8, ptr %10) #21
  call void @llvm.lifetime.end.p0(i64 8, ptr %9) #21
  call void @llvm.lifetime.end.p0(i64 8, ptr %8) #21
  call void @llvm.lifetime.end.p0(i64 8, ptr %7) #21
  call void @llvm.lifetime.end.p0(i64 8, ptr %6) #21
  %34 = load i64, ptr %3, align 8
  ret i64 %34
}