; Function Attrs: nounwind sspstrong uwtable
define dso_local i64 @rb_flt_rationalize_with_prec(i64 noundef %0, i64 noundef %1) local_unnamed_addr #0 {
  %3 = alloca i64, align 8
  %4 = alloca i64, align 8
  call void @llvm.lifetime.start.p0(i64 8, ptr nonnull %3) #17
  call void @llvm.lifetime.start.p0(i64 8, ptr nonnull %4) #17
  %5 = and i64 %1, 1
  %.not.i.i = icmp eq i64 %5, 0
  br i1 %.not.i.i, label %6, label %rb_integer_type_p.exit.thread.i

6:                                                ; preds = %2
  %7 = icmp eq i64 %1, 0
  %8 = and i64 %1, 6
  %9 = icmp ne i64 %8, 0
  %10 = or i1 %7, %9
  br i1 %10, label %rb_integer_type_p.exit.thread5.i, label %rb_integer_type_p.exit.i

rb_integer_type_p.exit.i:                         ; preds = %6
  %11 = inttoptr i64 %1 to ptr
  %12 = load i64, ptr %11, align 8, !tbaa !7
  %13 = and i64 %12, 31
  %14 = icmp eq i64 %13, 10
  br i1 %14, label %rb_integer_type_p.exit.thread.i, label %rb_integer_type_p.exit.thread5.i

rb_integer_type_p.exit.thread.i:                  ; preds = %rb_integer_type_p.exit.i, %2
  %15 = tail call i64 @rb_int_abs(i64 noundef %1) #17
  br label %f_abs.exit

rb_integer_type_p.exit.thread5.i:                 ; preds = %rb_integer_type_p.exit.i, %6
  %16 = load i64, ptr @id_abs, align 8, !tbaa !18
  %17 = tail call i64 (i64, i64, i32, ...) @rb_funcall(i64 noundef %1, i64 noundef %16, i32 noundef 0) #17
  br label %f_abs.exit

f_abs.exit:                                       ; preds = %rb_integer_type_p.exit.thread.i, %rb_integer_type_p.exit.thread5.i
  %.0.i = phi i64 [ %15, %rb_integer_type_p.exit.thread.i ], [ %17, %rb_integer_type_p.exit.thread5.i ]
  %18 = icmp eq i64 %.0.i, 1
  br i1 %18, label %f_add.exit, label %19

19:                                               ; preds = %f_abs.exit
  %20 = tail call i64 (i64, i64, i32, ...) @rb_funcall(i64 noundef %0, i64 noundef 45, i32 noundef 1, i64 noundef %.0.i) #17
  %21 = icmp eq i64 %0, 1
  br i1 %21, label %f_add.exit, label %22

22:                                               ; preds = %19
  %23 = and i64 %0, 1
  %.not.i.i12 = icmp eq i64 %23, 0
  br i1 %.not.i.i12, label %24, label %rb_integer_type_p.exit.thread.i13

24:                                               ; preds = %22
  %25 = icmp eq i64 %0, 0
  %26 = and i64 %0, 6
  %27 = icmp ne i64 %26, 0
  %28 = or i1 %25, %27
  br i1 %28, label %rb_integer_type_p.exit.thread11.i, label %rb_integer_type_p.exit.i15

rb_integer_type_p.exit.i15:                       ; preds = %24
  %29 = inttoptr i64 %0 to ptr
  %30 = load i64, ptr %29, align 8, !tbaa !7
  %31 = and i64 %30, 31
  %32 = icmp eq i64 %31, 10
  br i1 %32, label %rb_integer_type_p.exit.thread.i13, label %rb_integer_type_p.exit.thread11.i

rb_integer_type_p.exit.thread.i13:                ; preds = %rb_integer_type_p.exit.i15, %22
  %33 = tail call i64 @rb_int_plus(i64 noundef %0, i64 noundef %.0.i) #17
  br label %f_add.exit

rb_integer_type_p.exit.thread11.i:                ; preds = %rb_integer_type_p.exit.i15, %24
  %34 = tail call i64 (i64, i64, i32, ...) @rb_funcall(i64 noundef %0, i64 noundef 43, i32 noundef 1, i64 noundef %.0.i) #17
  br label %f_add.exit

f_add.exit:                                       ; preds = %f_abs.exit, %19, %rb_integer_type_p.exit.thread.i13, %rb_integer_type_p.exit.thread11.i
  %.0.i1120 = phi i64 [ %20, %rb_integer_type_p.exit.thread.i13 ], [ %20, %rb_integer_type_p.exit.thread11.i ], [ %20, %19 ], [ %0, %f_abs.exit ]
  %.0.i14 = phi i64 [ %33, %rb_integer_type_p.exit.thread.i13 ], [ %34, %rb_integer_type_p.exit.thread11.i ], [ %.0.i, %19 ], [ %0, %f_abs.exit ]
  %35 = and i64 %.0.i1120, 1
  %.not.i = icmp eq i64 %35, 0
  br i1 %.not.i, label %39, label %36

36:                                               ; preds = %f_add.exit
  %37 = and i64 %.0.i14, 1
  %.not14.i = icmp eq i64 %37, 0
  br i1 %.not14.i, label %rb_integer_type_p.exit.thread.i17, label %38

38:                                               ; preds = %36
  %.not21 = icmp eq i64 %.0.i1120, %.0.i14
  br i1 %.not21, label %53, label %55

39:                                               ; preds = %f_add.exit
  %40 = icmp eq i64 %.0.i1120, 0
  %41 = and i64 %.0.i1120, 6
  %42 = icmp ne i64 %41, 0
  %43 = or i1 %40, %42
  br i1 %43, label %f_eqeq_p.exit, label %rb_integer_type_p.exit.i18

rb_integer_type_p.exit.i18:                       ; preds = %39
  %44 = inttoptr i64 %.0.i1120 to ptr
  %45 = load i64, ptr %44, align 8, !tbaa !7
  %46 = and i64 %45, 31
  %47 = icmp eq i64 %46, 10
  br i1 %47, label %rb_integer_type_p.exit.thread.i17, label %f_eqeq_p.exit

rb_integer_type_p.exit.thread.i17:                ; preds = %rb_integer_type_p.exit.i18, %36
  %48 = tail call i64 @rb_int_equal(i64 noundef %.0.i1120, i64 noundef %.0.i14) #17
  %49 = and i64 %48, -5
  %.not = icmp eq i64 %49, 0
  br i1 %.not, label %55, label %53

f_eqeq_p.exit:                                    ; preds = %39, %rb_integer_type_p.exit.i18
  %50 = tail call i64 @rb_equal(i64 noundef %.0.i1120, i64 noundef %.0.i14) #17
  %51 = and i64 %50, 4294967295
  %52 = icmp eq i64 %51, 0
  br i1 %52, label %55, label %53

53:                                               ; preds = %rb_integer_type_p.exit.thread.i17, %38, %f_eqeq_p.exit
  %54 = tail call i64 @float_to_r(i64 noundef %0)
  br label %60

55:                                               ; preds = %rb_integer_type_p.exit.thread.i17, %38, %f_eqeq_p.exit
  call fastcc void @nurat_rationalize_internal(i64 noundef %.0.i1120, i64 noundef %.0.i14, ptr noundef %3, ptr noundef %4)
  %56 = load i64, ptr %3, align 8, !tbaa !18
  %57 = load i64, ptr %4, align 8, !tbaa !18
  %58 = load i64, ptr @rb_cRational, align 8, !tbaa !18
  %59 = tail call fastcc i64 @nurat_s_canonicalize_internal(i64 noundef %58, i64 noundef %56, i64 noundef %57)
  br label %60

60:                                               ; preds = %55, %53
  %.0 = phi i64 [ %54, %53 ], [ %59, %55 ]
  call void @llvm.lifetime.end.p0(i64 8, ptr nonnull %4) #17
  call void @llvm.lifetime.end.p0(i64 8, ptr nonnull %3) #17
  ret i64 %.0
}